target datalayout = "e-m:e-p270:32:32-p271:32:32-p272:64:64-i64:64-i128:128-f80:128-n8:16:32:64-S128"
target triple = "x86_64-pc-linux-gnu"

%struct.SDL_AtomicInt = type { i32 }
%struct.VulkanRenderer = type { ptr, ptr, %struct.VkPhysicalDeviceProperties2, %struct.VkPhysicalDeviceDriverProperties, %struct.VkPhysicalDeviceFeatures, ptr, i8, i8, i8, i8, i8, i8, i32, i32, %struct.VulkanExtensions, i8, i8, i8, i8, ptr, %struct.VkPhysicalDeviceMemoryProperties, i8, ptr, i32, i32, i32, ptr, ptr, i32, i32, %struct.VulkanFencePool, ptr, ptr, ptr, ptr, ptr, ptr, ptr, i32, i32, ptr, i32, i32, %struct.SDL_AtomicInt, i32, ptr, i32, i32, ptr, i32, i32, ptr, i32, i32, ptr, i32, i32, ptr, i32, i32, ptr, i32, i32, ptr, i32, i32, ptr, ptr, ptr, ptr, ptr, ptr, ptr, ptr, ptr, ptr, ptr, i8, ptr, i32, i32, ptr, ptr, ptr, ptr, ptr, ptr, ptr, ptr, ptr, ptr, ptr, ptr, ptr, ptr, ptr, ptr, ptr, ptr, ptr, ptr, ptr, ptr, ptr, ptr, ptr, ptr, ptr, ptr, ptr, ptr, ptr, ptr, ptr, ptr, ptr, ptr, ptr, ptr, ptr, ptr, ptr, ptr, ptr, ptr, ptr, ptr, ptr, ptr, ptr, ptr, ptr, ptr, ptr, ptr, ptr, ptr, ptr, ptr, ptr, ptr, ptr, ptr, ptr, ptr, ptr, ptr, ptr, ptr, ptr, ptr, ptr, ptr, ptr, ptr, ptr, ptr, ptr, ptr, ptr, ptr, ptr, ptr, ptr, ptr, ptr, ptr, ptr, ptr, ptr, ptr, ptr, ptr, ptr, ptr, ptr, ptr, ptr, ptr, ptr, ptr, ptr, ptr, ptr, ptr, ptr, ptr, ptr, ptr, ptr, ptr }
%struct.VkPhysicalDeviceProperties2 = type { i32, ptr, %struct.VkPhysicalDeviceProperties }
%struct.VkPhysicalDeviceProperties = type { i32, i32, i32, i32, i32, [256 x i8], [16 x i8], %struct.VkPhysicalDeviceLimits, %struct.VkPhysicalDeviceSparseProperties }
%struct.VkPhysicalDeviceLimits = type { i32, i32, i32, i32, i32, i32, i32, i32, i32, i32, i32, i64, i64, i32, i32, i32, i32, i32, i32, i32, i32, i32, i32, i32, i32, i32, i32, i32, i32, i32, i32, i32, i32, i32, i32, i32, i32, i32, i32, i32, i32, i32, i32, i32, i32, i32, i32, i32, i32, i32, i32, i32, [3 x i32], i32, [3 x i32], i32, i32, i32, i32, i32, float, float, i32, [2 x i32], [2 x float], i32, i64, i64, i64, i64, i32, i32, i32, i32, float, float, i32, i32, i32, i32, i32, i32, i32, i32, i32, i32, i32, i32, i32, i32, i32, i32, float, i32, i32, i32, i32, [2 x float], [2 x float], float, float, i32, i32, i64, i64, i64 }
%struct.VkPhysicalDeviceSparseProperties = type { i32, i32, i32, i32, i32 }
%struct.VkPhysicalDeviceDriverProperties = type { i32, ptr, i32, [256 x i8], [256 x i8], %struct.VkConformanceVersion }
%struct.VkConformanceVersion = type { i8, i8, i8, i8 }
%struct.VkPhysicalDeviceFeatures = type { i32, i32, i32, i32, i32, i32, i32, i32, i32, i32, i32, i32, i32, i32, i32, i32, i32, i32, i32, i32, i32, i32, i32, i32, i32, i32, i32, i32, i32, i32, i32, i32, i32, i32, i32, i32, i32, i32, i32, i32, i32, i32, i32, i32, i32, i32, i32, i32, i32, i32, i32, i32, i32, i32, i32 }
%struct.VulkanExtensions = type { i8, i8, i8, i8, i8 }
%struct.VkPhysicalDeviceMemoryProperties = type { i32, [32 x %struct.VkMemoryType], i32, [16 x %struct.VkMemoryHeap] }
%struct.VkMemoryType = type { i32, i32 }
%struct.VkMemoryHeap = type { i64, i32 }
%struct.VulkanFencePool = type { ptr, ptr, i32, i32 }
%struct.VulkanBufferContainer = type { ptr, ptr, i32, i32, i8, ptr }
%struct.VulkanCommandBuffer = type { %struct.CommandBufferCommonHeader, ptr, ptr, ptr, ptr, i32, i32, ptr, i32, i32, ptr, i32, i32, ptr, ptr, [4 x ptr], i32, [4 x ptr], i32, ptr, %struct.VkViewport, %struct.VkRect2D, [4 x float], i8, ptr, i8, i8, i8, i8, i8, i8, i8, i8, i8, i8, ptr, ptr, ptr, ptr, ptr, ptr, ptr, [16 x ptr], [16 x i64], i32, i8, [16 x ptr], [16 x ptr], [8 x ptr], [8 x ptr], [16 x ptr], [16 x ptr], [8 x ptr], [8 x ptr], [8 x ptr], i32, [8 x ptr], [16 x ptr], [16 x ptr], [8 x ptr], [8 x ptr], [4 x ptr], [4 x ptr], [4 x ptr], ptr, i32, i32, ptr, i32, i32, ptr, i32, i32, ptr, i32, i32, ptr, i32, i32, ptr, i32, i32, ptr, i32, i32, ptr, i8, i8 }
%struct.CommandBufferCommonHeader = type { ptr, %struct.RenderPass, i8, %struct.Pass, i8, %struct.Pass, i8, i8, i8 }
%struct.RenderPass = type { ptr, i8, [4 x ptr], i32, ptr }
%struct.Pass = type { ptr, i8 }
%struct.VkViewport = type { float, float, float, float, float, float }
%struct.VkRect2D = type { %struct.VkOffset2D, %struct.VkExtent2D }
%struct.VkOffset2D = type { i32, i32 }
%struct.VkExtent2D = type { i32, i32 }
%struct.SDL_GPUBufferBinding = type { ptr, i32 }
%struct.VulkanBuffer = type { ptr, i32, ptr, ptr, i32, i32, i64, %struct.SDL_AtomicInt, i8, i8, ptr }

@SDLToVK_IndexType = internal global [2 x i32] [i32 0, i32 1], align 4

; Function Attrs: nounwind uwtable
define internal void @VULKAN_INTERNAL_TrackBuffer(ptr noundef %0, ptr noundef %1) #0 {
  %3 = alloca ptr, align 8
  %4 = alloca ptr, align 8
  %5 = alloca i32, align 4
  %6 = alloca i32, align 4
  store ptr %0, ptr %3, align 8
  store ptr %1, ptr %4, align 8
  call void @llvm.lifetime.start.p0(i64 4, ptr %5) #9
  %7 = load ptr, ptr %3, align 8
  %8 = getelementptr inbounds nuw %struct.VulkanCommandBuffer, ptr %7, i32 0, i32 65
  %9 = load i32, ptr %8, align 8
  %10 = sub nsw i32 %9, 1
  store i32 %10, ptr %5, align 4
  br label %11

11:                                               ; preds = %27, %2
  %12 = load i32, ptr %5, align 4
  %13 = icmp sge i32 %12, 0
  br i1 %13, label %15, label %14

14:                                               ; preds = %11
  store i32 2, ptr %6, align 4
  br label %30

15:                                               ; preds = %11
  %16 = load ptr, ptr %3, align 8
  %17 = getelementptr inbounds nuw %struct.VulkanCommandBuffer, ptr %16, i32 0, i32 64
  %18 = load ptr, ptr %17, align 8
  %19 = load i32, ptr %5, align 4
  %20 = sext i32 %19 to i64
  %21 = getelementptr inbounds ptr, ptr %18, i64 %20
  %22 = load ptr, ptr %21, align 8
  %23 = load ptr, ptr %4, align 8
  %24 = icmp eq ptr %22, %23
  br i1 %24, label %25, label %26

25:                                               ; preds = %15
  store i32 1, ptr %6, align 4
  br label %30

26:                                               ; preds = %15
  br label %27

27:                                               ; preds = %26
  %28 = load i32, ptr %5, align 4
  %29 = sub nsw i32 %28, 1
  store i32 %29, ptr %5, align 4
  br label %11, !llvm.loop !125

30:                                               ; preds = %25, %14
  call void @llvm.lifetime.end.p0(i64 4, ptr %5) #9
  %31 = load i32, ptr %6, align 4
  switch i32 %31, label %74 [
    i32 2, label %32
    i32 1, label %73
  ]

32:                                               ; preds = %30
  %33 = load ptr, ptr %3, align 8
  %34 = getelementptr inbounds nuw %struct.VulkanCommandBuffer, ptr %33, i32 0, i32 65
  %35 = load i32, ptr %34, align 8
  %36 = load ptr, ptr %3, align 8
  %37 = getelementptr inbounds nuw %struct.VulkanCommandBuffer, ptr %36, i32 0, i32 66
  %38 = load i32, ptr %37, align 4
  %39 = icmp eq i32 %35, %38
  br i1 %39, label %40, label %56

40:                                               ; preds = %32
  %41 = load ptr, ptr %3, align 8
  %42 = getelementptr inbounds nuw %struct.VulkanCommandBuffer, ptr %41, i32 0, i32 66
  %43 = load i32, ptr %42, align 4
  %44 = add nsw i32 %43, 1
  store i32 %44, ptr %42, align 4
  %45 = load ptr, ptr %3, align 8
  %46 = getelementptr inbounds nuw %struct.VulkanCommandBuffer, ptr %45, i32 0, i32 64
  %47 = load ptr, ptr %46, align 8
  %48 = load ptr, ptr %3, align 8
  %49 = getelementptr inbounds nuw %struct.VulkanCommandBuffer, ptr %48, i32 0, i32 66
  %50 = load i32, ptr %49, align 4
  %51 = sext i32 %50 to i64
  %52 = mul i64 %51, 8
  %53 = call ptr @SDL_realloc_REAL(ptr noundef %47, i64 noundef %52) #11
  %54 = load ptr, ptr %3, align 8
  %55 = getelementptr inbounds nuw %struct.VulkanCommandBuffer, ptr %54, i32 0, i32 64
  store ptr %53, ptr %55, align 8
  br label %56

56:                                               ; preds = %40, %32
  %57 = load ptr, ptr %4, align 8
  %58 = load ptr, ptr %3, align 8
  %59 = getelementptr inbounds nuw %struct.VulkanCommandBuffer, ptr %58, i32 0, i32 64
  %60 = load ptr, ptr %59, align 8
  %61 = load ptr, ptr %3, align 8
  %62 = getelementptr inbounds nuw %struct.VulkanCommandBuffer, ptr %61, i32 0, i32 65
  %63 = load i32, ptr %62, align 8
  %64 = sext i32 %63 to i64
  %65 = getelementptr inbounds ptr, ptr %60, i64 %64
  store ptr %57, ptr %65, align 8
  %66 = load ptr, ptr %3, align 8
  %67 = getelementptr inbounds nuw %struct.VulkanCommandBuffer, ptr %66, i32 0, i32 65
  %68 = load i32, ptr %67, align 8
  %69 = add nsw i32 %68, 1
  store i32 %69, ptr %67, align 8
  %70 = load ptr, ptr %4, align 8
  %71 = getelementptr inbounds nuw %struct.VulkanBuffer, ptr %70, i32 0, i32 7
  %72 = call i32 @SDL_AddAtomicInt_REAL(ptr noundef %71, i32 noundef 1)
  br label %73

73:                                               ; preds = %56, %30
  ret void

74:                                               ; preds = %30
  unreachable
}

; Function Attrs: nounwind uwtable
define internal void @VULKAN_BindIndexBuffer(ptr noundef %0, ptr noundef %1, i32 noundef %2) #0 {
  %4 = alloca ptr, align 8
  %5 = alloca ptr, align 8
  %6 = alloca i32, align 4
  %7 = alloca ptr, align 8
  %8 = alloca ptr, align 8
  %9 = alloca ptr, align 8
  store ptr %0, ptr %4, align 8
  store ptr %1, ptr %5, align 8
  store i32 %2, ptr %6, align 4
  call void @llvm.lifetime.start.p0(i64 8, ptr %7) #9
  %10 = load ptr, ptr %4, align 8
  store ptr %10, ptr %7, align 8
  call void @llvm.lifetime.start.p0(i64 8, ptr %8) #9
  %11 = load ptr, ptr %7, align 8
  %12 = getelementptr inbounds nuw %struct.VulkanCommandBuffer, ptr %11, i32 0, i32 1
  %13 = load ptr, ptr %12, align 8
  store ptr %13, ptr %8, align 8
  call void @llvm.lifetime.start.p0(i64 8, ptr %9) #9
  %14 = load ptr, ptr %5, align 8
  %15 = getelementptr inbounds nuw %struct.SDL_GPUBufferBinding, ptr %14, i32 0, i32 0
  %16 = load ptr, ptr %15, align 8
  %17 = getelementptr inbounds nuw %struct.VulkanBufferContainer, ptr %16, i32 0, i32 0
  %18 = load ptr, ptr %17, align 8
  store ptr %18, ptr %9, align 8
  %19 = load ptr, ptr %7, align 8
  %20 = load ptr, ptr %9, align 8
  call void @VULKAN_INTERNAL_TrackBuffer(ptr noundef %19, ptr noundef %20)
  %21 = load ptr, ptr %8, align 8
  %22 = getelementptr inbounds nuw %struct.VulkanRenderer, ptr %21, i32 0, i32 110
  %23 = load ptr, ptr %22, align 8
  %24 = load ptr, ptr %7, align 8
  %25 = getelementptr inbounds nuw %struct.VulkanCommandBuffer, ptr %24, i32 0, i32 2
  %26 = load ptr, ptr %25, align 8
  %27 = load ptr, ptr %9, align 8
  %28 = getelementptr inbounds nuw %struct.VulkanBuffer, ptr %27, i32 0, i32 2
  %29 = load ptr, ptr %28, align 8
  %30 = load ptr, ptr %5, align 8
  %31 = getelementptr inbounds nuw %struct.SDL_GPUBufferBinding, ptr %30, i32 0, i32 1
  %32 = load i32, ptr %31, align 8
  %33 = zext i32 %32 to i64
  %34 = load i32, ptr %6, align 4
  %35 = zext i32 %34 to i64
  %36 = getelementptr inbounds nuw [2 x i32], ptr @SDLToVK_IndexType, i64 0, i64 %35
  %37 = load i32, ptr %36, align 4
  call void %23(ptr noundef %26, ptr noundef %29, i64 noundef %33, i32 noundef %37)
  call void @llvm.lifetime.end.p0(i64 8, ptr %9) #9
  call void @llvm.lifetime.end.p0(i64 8, ptr %8) #9
  call void @llvm.lifetime.end.p0(i64 8, ptr %7) #9
  ret void
}