; Function Attrs: nounwind uwtable
define internal void @VULKAN_BindIndexBuffer(ptr noundef captures(none) %0, ptr noundef readonly captures(none) %1, i32 noundef %2) #0 {
  %4 = getelementptr inbounds nuw i8, ptr %0, i64 128
  %5 = load ptr, ptr %4, align 8
  %6 = load ptr, ptr %1, align 8
  %7 = load ptr, ptr %6, align 8
  %8 = getelementptr inbounds nuw i8, ptr %0, i64 2104
  %9 = load i32, ptr %8, align 8
  %10 = getelementptr inbounds nuw i8, ptr %0, i64 2096
  %11 = zext i32 %9 to i64
  br label %12

12:                                               ; preds = %15, %3
  %indvars.iv.i = phi i64 [ %16, %15 ], [ %11, %3 ]
  %13 = trunc nuw i64 %indvars.iv.i to i32
  %14 = icmp sgt i32 %13, 0
  br i1 %14, label %15, label %21

15:                                               ; preds = %12
  %16 = add nsw i64 %indvars.iv.i, -1
  %17 = load ptr, ptr %10, align 8
  %18 = getelementptr inbounds nuw ptr, ptr %17, i64 %16
  %19 = load ptr, ptr %18, align 8
  %20 = icmp eq ptr %19, %7
  br i1 %20, label %VULKAN_INTERNAL_TrackBuffer.exit, label %12, !llvm.loop !45

21:                                               ; preds = %12
  %22 = getelementptr inbounds nuw i8, ptr %0, i64 2108
  %23 = load i32, ptr %22, align 4
  %24 = icmp eq i32 %9, %23
  %.pre.i = load ptr, ptr %10, align 8
  br i1 %24, label %25, label %30

25:                                               ; preds = %21
  %26 = add nsw i32 %9, 1
  store i32 %26, ptr %22, align 4
  %27 = sext i32 %26 to i64
  %28 = shl nsw i64 %27, 3
  %29 = tail call ptr @SDL_realloc_REAL(ptr noundef %.pre.i, i64 noundef %28) #16
  store ptr %29, ptr %10, align 8
  %.pre24.i = load i32, ptr %8, align 8
  br label %30

30:                                               ; preds = %25, %21
  %31 = phi i32 [ %.pre24.i, %25 ], [ %9, %21 ]
  %32 = phi ptr [ %29, %25 ], [ %.pre.i, %21 ]
  %33 = sext i32 %31 to i64
  %34 = getelementptr inbounds ptr, ptr %32, i64 %33
  store ptr %7, ptr %34, align 8
  %35 = load i32, ptr %8, align 8
  %36 = add nsw i32 %35, 1
  store i32 %36, ptr %8, align 8
  %37 = getelementptr inbounds nuw i8, ptr %7, i64 48
  %38 = tail call i32 @SDL_AddAtomicInt_REAL(ptr noundef nonnull %37, i32 noundef 1) #13
  br label %VULKAN_INTERNAL_TrackBuffer.exit

VULKAN_INTERNAL_TrackBuffer.exit:                 ; preds = %15, %30
  %39 = getelementptr inbounds nuw i8, ptr %5, i64 2808
  %40 = load ptr, ptr %39, align 8
  %41 = getelementptr inbounds nuw i8, ptr %0, i64 136
  %42 = load ptr, ptr %41, align 8
  %43 = getelementptr inbounds nuw i8, ptr %7, i64 16
  %44 = load ptr, ptr %43, align 8
  %45 = getelementptr inbounds nuw i8, ptr %1, i64 8
  %46 = load i32, ptr %45, align 8
  %47 = zext i32 %46 to i64
  %48 = zext i32 %2 to i64
  %49 = getelementptr inbounds nuw [2 x i32], ptr @SDLToVK_IndexType, i64 0, i64 %48
  %50 = load i32, ptr %49, align 4
  tail call void %40(ptr noundef %42, ptr noundef %44, i64 noundef %47, i32 noundef %50) #13
  ret void
}